target datalayout = "e-m:e-p270:32:32-p271:32:32-p272:64:64-i64:64-i128:128-f80:128-n8:16:32:64-S128"
target triple = "x86_64-pc-linux-gnu"

%struct.jdwpPacket = type { %union.anon }
%union.anon = type { %struct.jdwpCmdPacket }
%struct.jdwpCmdPacket = type { i32, i32, i8, i8, i8, ptr }
%struct.PacketInputStream = type { ptr, i32, i16, %struct.jdwpPacket, ptr }

; Function Attrs: nounwind uwtable
define internal zeroext i16 @readBytes(ptr noundef %0, ptr noundef %1, i32 noundef %2) #0 {
  %4 = alloca i16, align 2
  %5 = alloca ptr, align 8
  %6 = alloca ptr, align 8
  %7 = alloca i32, align 4
  store ptr %0, ptr %5, align 8
  store ptr %1, ptr %6, align 8
  store i32 %2, ptr %7, align 4
  %8 = load ptr, ptr %5, align 8
  %9 = getelementptr inbounds %struct.PacketInputStream, ptr %8, i32 0, i32 2
  %10 = load i16, ptr %9, align 4
  %11 = icmp ne i16 %10, 0
  br i1 %11, label %12, label %16

12:                                               ; preds = %3
  %13 = load ptr, ptr %5, align 8
  %14 = getelementptr inbounds %struct.PacketInputStream, ptr %13, i32 0, i32 2
  %15 = load i16, ptr %14, align 4
  store i16 %15, ptr %4, align 2
  br label %53

16:                                               ; preds = %3
  %17 = load i32, ptr %7, align 4
  %18 = load ptr, ptr %5, align 8
  %19 = getelementptr inbounds %struct.PacketInputStream, ptr %18, i32 0, i32 1
  %20 = load i32, ptr %19, align 8
  %21 = icmp sgt i32 %17, %20
  br i1 %21, label %22, label %28

22:                                               ; preds = %16
  %23 = load ptr, ptr %5, align 8
  %24 = getelementptr inbounds %struct.PacketInputStream, ptr %23, i32 0, i32 2
  store i16 113, ptr %24, align 4
  %25 = load ptr, ptr %5, align 8
  %26 = getelementptr inbounds %struct.PacketInputStream, ptr %25, i32 0, i32 2
  %27 = load i16, ptr %26, align 4
  store i16 %27, ptr %4, align 2
  br label %53

28:                                               ; preds = %16
  %29 = load ptr, ptr %6, align 8
  %30 = icmp ne ptr %29, null
  br i1 %30, label %31, label %38

31:                                               ; preds = %28
  %32 = load ptr, ptr %6, align 8
  %33 = load ptr, ptr %5, align 8
  %34 = getelementptr inbounds %struct.PacketInputStream, ptr %33, i32 0, i32 0
  %35 = load ptr, ptr %34, align 8
  %36 = load i32, ptr %7, align 4
  %37 = sext i32 %36 to i64
  call void @llvm.memcpy.p0.p0.i64(ptr align 1 %32, ptr align 1 %35, i64 %37, i1 false)
  br label %38

38:                                               ; preds = %31, %28
  %39 = load i32, ptr %7, align 4
  %40 = load ptr, ptr %5, align 8
  %41 = getelementptr inbounds %struct.PacketInputStream, ptr %40, i32 0, i32 0
  %42 = load ptr, ptr %41, align 8
  %43 = sext i32 %39 to i64
  %44 = getelementptr inbounds i8, ptr %42, i64 %43
  store ptr %44, ptr %41, align 8
  %45 = load i32, ptr %7, align 4
  %46 = load ptr, ptr %5, align 8
  %47 = getelementptr inbounds %struct.PacketInputStream, ptr %46, i32 0, i32 1
  %48 = load i32, ptr %47, align 8
  %49 = sub nsw i32 %48, %45
  store i32 %49, ptr %47, align 8
  %50 = load ptr, ptr %5, align 8
  %51 = getelementptr inbounds %struct.PacketInputStream, ptr %50, i32 0, i32 2
  %52 = load i16, ptr %51, align 4
  store i16 %52, ptr %4, align 2
  br label %53

53:                                               ; preds = %38, %22, %12
  %54 = load i16, ptr %4, align 2
  ret i16 %54
}

; Function Attrs: nounwind uwtable
define hidden ptr @inStream_readBytes(ptr noundef %0, i32 noundef %1, ptr noundef %2) #0 {
  %4 = alloca ptr, align 8
  %5 = alloca i32, align 4
  %6 = alloca ptr, align 8
  store ptr %0, ptr %4, align 8
  store i32 %1, ptr %5, align 4
  store ptr %2, ptr %6, align 8
  %7 = load ptr, ptr %4, align 8
  %8 = load ptr, ptr %6, align 8
  %9 = load i32, ptr %5, align 4
  %10 = call zeroext i16 @readBytes(ptr noundef %7, ptr noundef %8, i32 noundef %9)
  %11 = load ptr, ptr %6, align 8
  ret ptr %11
}