; Function Attrs: mustprogress nofree norecurse nosync nounwind willreturn memory(readwrite, inaccessiblemem: none) uwtable
define hidden noundef ptr @inStream_readBytes(ptr nocapture noundef %0, i32 noundef %1, ptr noundef returned writeonly %2) local_unnamed_addr #6 {
  %4 = getelementptr inbounds i8, ptr %0, i64 12
  %5 = load i16, ptr %4, align 4
  %.not.i = icmp eq i16 %5, 0
  br i1 %.not.i, label %6, label %readBytes.exit

6:                                                ; preds = %3
  %7 = getelementptr inbounds i8, ptr %0, i64 8
  %8 = load i32, ptr %7, align 8
  %9 = icmp slt i32 %8, %1
  br i1 %9, label %10, label %11

10:                                               ; preds = %6
  store i16 113, ptr %4, align 4
  br label %readBytes.exit

11:                                               ; preds = %6
  %.not18.i = icmp eq ptr %2, null
  br i1 %.not18.i, label %._crit_edge.i, label %12

._crit_edge.i:                                    ; preds = %11
  %.pre20.i = sext i32 %1 to i64
  br label %15

12:                                               ; preds = %11
  %13 = load ptr, ptr %0, align 8
  %14 = sext i32 %1 to i64
  tail call void @llvm.memcpy.p0.p0.i64(ptr nonnull align 1 %2, ptr align 1 %13, i64 %14, i1 false)
  %.pre.i = load i32, ptr %7, align 8
  br label %15

15:                                               ; preds = %12, %._crit_edge.i
  %.pre-phi.i = phi i64 [ %.pre20.i, %._crit_edge.i ], [ %14, %12 ]
  %16 = phi i32 [ %8, %._crit_edge.i ], [ %.pre.i, %12 ]
  %17 = load ptr, ptr %0, align 8
  %18 = getelementptr inbounds i8, ptr %17, i64 %.pre-phi.i
  store ptr %18, ptr %0, align 8
  %19 = sub nsw i32 %16, %1
  store i32 %19, ptr %7, align 8
  br label %readBytes.exit

readBytes.exit:                                   ; preds = %3, %10, %15
  ret ptr %2
}